target datalayout = "e-m:e-p270:32:32-p271:32:32-p272:64:64-i64:64-i128:128-f80:128-n8:16:32:64-S128"
target triple = "x86_64-pc-linux-gnu"

%struct.termiosmodulestate = type { ptr }
%struct.termios = type { i32, i32, i32, i32, i8, [32 x i8], i32, i32 }

; Function Attrs: inlinehint nounwind uwtable
define internal void @Py_DECREF(ptr noundef %0) #5 {
  %2 = alloca ptr, align 8
  store ptr %0, ptr %2, align 8, !tbaa !3
  %3 = load ptr, ptr %2, align 8, !tbaa !3
  call void @_Py_DecRef(ptr noundef %3)
  ret void
}

; Function Attrs: nounwind uwtable
define internal ptr @termios_tcgetattr_impl(ptr noundef %0, i32 noundef %1) #0 {
  %3 = alloca ptr, align 8
  %4 = alloca ptr, align 8
  %5 = alloca i32, align 4
  %6 = alloca ptr, align 8
  %7 = alloca %struct.termios, align 4
  %8 = alloca i32, align 4
  %9 = alloca ptr, align 8
  %10 = alloca i32, align 4
  %11 = alloca i32, align 4
  %12 = alloca i32, align 4
  %13 = alloca ptr, align 8
  %14 = alloca ptr, align 8
  %15 = alloca i32, align 4
  %16 = alloca i8, align 1
  %17 = alloca ptr, align 8
  %18 = alloca ptr, align 8
  %19 = alloca ptr, align 8
  %20 = alloca ptr, align 8
  %21 = alloca ptr, align 8
  %22 = alloca ptr, align 8
  store ptr %0, ptr %4, align 8, !tbaa !3
  store i32 %1, ptr %5, align 4, !tbaa !11
  call void @llvm.lifetime.start.p0(i64 8, ptr %6) #7
  %23 = load ptr, ptr %4, align 8, !tbaa !3
  %24 = call ptr @PyModule_GetState(ptr noundef %23)
  store ptr %24, ptr %6, align 8, !tbaa !8
  call void @llvm.lifetime.start.p0(i64 60, ptr %7) #7
  call void @llvm.lifetime.start.p0(i64 4, ptr %8) #7
  call void @llvm.memset.p0.i64(ptr align 4 %7, i8 0, i64 60, i1 false)
  call void @llvm.lifetime.start.p0(i64 8, ptr %9) #7
  %25 = call ptr @PyEval_SaveThread()
  store ptr %25, ptr %9, align 8, !tbaa !17
  %26 = load i32, ptr %5, align 4, !tbaa !11
  %27 = call i32 @tcgetattr(i32 noundef %26, ptr noundef %7) #7
  store i32 %27, ptr %8, align 4, !tbaa !11
  %28 = load ptr, ptr %9, align 8, !tbaa !17
  call void @PyEval_RestoreThread(ptr noundef %28)
  call void @llvm.lifetime.end.p0(i64 8, ptr %9) #7
  %29 = load i32, ptr %8, align 4, !tbaa !11
  %30 = icmp eq i32 %29, -1
  br i1 %30, label %31, label %36

31:                                               ; preds = %2
  %32 = load ptr, ptr %6, align 8, !tbaa !8
  %33 = getelementptr inbounds nuw %struct.termiosmodulestate, ptr %32, i32 0, i32 0
  %34 = load ptr, ptr %33, align 8, !tbaa !9
  %35 = call ptr @PyErr_SetFromErrno(ptr noundef %34)
  store ptr %35, ptr %3, align 8
  store i32 1, ptr %10, align 4
  br label %224

36:                                               ; preds = %2
  call void @llvm.lifetime.start.p0(i64 4, ptr %11) #7
  %37 = call i32 @cfgetispeed(ptr noundef %7) #7
  store i32 %37, ptr %11, align 4, !tbaa !11
  call void @llvm.lifetime.start.p0(i64 4, ptr %12) #7
  %38 = call i32 @cfgetospeed(ptr noundef %7) #7
  store i32 %38, ptr %12, align 4, !tbaa !11
  call void @llvm.lifetime.start.p0(i64 8, ptr %13) #7
  %39 = call ptr @PyList_New(i64 noundef 32)
  store ptr %39, ptr %13, align 8, !tbaa !3
  %40 = load ptr, ptr %13, align 8, !tbaa !3
  %41 = icmp eq ptr %40, null
  br i1 %41, label %42, label %43

42:                                               ; preds = %36
  store ptr null, ptr %3, align 8
  store i32 1, ptr %10, align 4
  br label %223

43:                                               ; preds = %36
  call void @llvm.lifetime.start.p0(i64 8, ptr %14) #7
  call void @llvm.lifetime.start.p0(i64 4, ptr %15) #7
  store i32 0, ptr %15, align 4, !tbaa !11
  br label %44

44:                                               ; preds = %66, %43
  %45 = load i32, ptr %15, align 4, !tbaa !11
  %46 = icmp slt i32 %45, 32
  br i1 %46, label %47, label %69

47:                                               ; preds = %44
  call void @llvm.lifetime.start.p0(i64 1, ptr %16) #7
  %48 = getelementptr inbounds nuw %struct.termios, ptr %7, i32 0, i32 5
  %49 = load i32, ptr %15, align 4, !tbaa !11
  %50 = sext i32 %49 to i64
  %51 = getelementptr [32 x i8], ptr %48, i64 0, i64 %50
  %52 = load i8, ptr %51, align 1, !tbaa !19
  store i8 %52, ptr %16, align 1, !tbaa !19
  %53 = call ptr @PyBytes_FromStringAndSize(ptr noundef %16, i64 noundef 1)
  store ptr %53, ptr %14, align 8, !tbaa !3
  %54 = load ptr, ptr %14, align 8, !tbaa !3
  %55 = icmp eq ptr %54, null
  br i1 %55, label %56, label %57

56:                                               ; preds = %47
  store i32 5, ptr %10, align 4
  br label %63

57:                                               ; preds = %47
  %58 = load ptr, ptr %13, align 8, !tbaa !3
  %59 = load i32, ptr %15, align 4, !tbaa !11
  %60 = sext i32 %59 to i64
  %61 = load ptr, ptr %14, align 8, !tbaa !3
  %62 = call i32 @PyList_SetItem(ptr noundef %58, i64 noundef %60, ptr noundef %61)
  store i32 0, ptr %10, align 4
  br label %63

63:                                               ; preds = %56, %57
  call void @llvm.lifetime.end.p0(i64 1, ptr %16) #7
  %64 = load i32, ptr %10, align 4
  switch i32 %64, label %222 [
    i32 0, label %65
    i32 5, label %220
  ]

65:                                               ; preds = %63
  br label %66

66:                                               ; preds = %65
  %67 = load i32, ptr %15, align 4, !tbaa !11
  %68 = add i32 %67, 1
  store i32 %68, ptr %15, align 4, !tbaa !11
  br label %44, !llvm.loop !20

69:                                               ; preds = %44
  %70 = getelementptr inbounds nuw %struct.termios, ptr %7, i32 0, i32 3
  %71 = load i32, ptr %70, align 4, !tbaa !22
  %72 = and i32 %71, 2
  %73 = icmp eq i32 %72, 0
  br i1 %73, label %74, label %105

74:                                               ; preds = %69
  %75 = getelementptr inbounds nuw %struct.termios, ptr %7, i32 0, i32 5
  %76 = getelementptr [32 x i8], ptr %75, i64 0, i64 6
  %77 = load i8, ptr %76, align 1, !tbaa !19
  %78 = zext i8 %77 to i64
  %79 = call ptr @PyLong_FromLong(i64 noundef %78)
  store ptr %79, ptr %14, align 8, !tbaa !3
  %80 = load ptr, ptr %14, align 8, !tbaa !3
  %81 = icmp eq ptr %80, null
  br i1 %81, label %82, label %83

82:                                               ; preds = %74
  br label %220

83:                                               ; preds = %74
  %84 = load ptr, ptr %13, align 8, !tbaa !3
  %85 = load ptr, ptr %14, align 8, !tbaa !3
  %86 = call i32 @PyList_SetItem(ptr noundef %84, i64 noundef 6, ptr noundef %85)
  %87 = icmp slt i32 %86, 0
  br i1 %87, label %88, label %89

88:                                               ; preds = %83
  br label %220

89:                                               ; preds = %83
  %90 = getelementptr inbounds nuw %struct.termios, ptr %7, i32 0, i32 5
  %91 = getelementptr [32 x i8], ptr %90, i64 0, i64 5
  %92 = load i8, ptr %91, align 1, !tbaa !19
  %93 = zext i8 %92 to i64
  %94 = call ptr @PyLong_FromLong(i64 noundef %93)
  store ptr %94, ptr %14, align 8, !tbaa !3
  %95 = load ptr, ptr %14, align 8, !tbaa !3
  %96 = icmp eq ptr %95, null
  br i1 %96, label %97, label %98

97:                                               ; preds = %89
  br label %220

98:                                               ; preds = %89
  %99 = load ptr, ptr %13, align 8, !tbaa !3
  %100 = load ptr, ptr %14, align 8, !tbaa !3
  %101 = call i32 @PyList_SetItem(ptr noundef %99, i64 noundef 5, ptr noundef %100)
  %102 = icmp slt i32 %101, 0
  br i1 %102, label %103, label %104

103:                                              ; preds = %98
  br label %220

104:                                              ; preds = %98
  br label %105

105:                                              ; preds = %104, %69
  %106 = call ptr @PyList_New(i64 noundef 7)
  store ptr %106, ptr %14, align 8, !tbaa !3
  %107 = icmp ne ptr %106, null
  br i1 %107, label %109, label %108

108:                                              ; preds = %105
  br label %220

109:                                              ; preds = %105
  br label %110

110:                                              ; preds = %109
  call void @llvm.lifetime.start.p0(i64 8, ptr %17) #7
  %111 = getelementptr inbounds nuw %struct.termios, ptr %7, i32 0, i32 0
  %112 = load i32, ptr %111, align 4, !tbaa !24
  %113 = zext i32 %112 to i64
  %114 = call ptr @PyLong_FromLong(i64 noundef %113)
  store ptr %114, ptr %17, align 8, !tbaa !3
  %115 = load ptr, ptr %17, align 8, !tbaa !3
  %116 = icmp eq ptr %115, null
  br i1 %116, label %117, label %119

117:                                              ; preds = %110
  %118 = load ptr, ptr %14, align 8, !tbaa !3
  call void @Py_DECREF(ptr noundef %118)
  store i32 5, ptr %10, align 4
  br label %123

119:                                              ; preds = %110
  %120 = load ptr, ptr %14, align 8, !tbaa !3
  %121 = load ptr, ptr %17, align 8, !tbaa !3
  %122 = call i32 @PyList_SetItem(ptr noundef %120, i64 noundef 0, ptr noundef %121)
  store i32 0, ptr %10, align 4
  br label %123

123:                                              ; preds = %117, %119
  call void @llvm.lifetime.end.p0(i64 8, ptr %17) #7
  %124 = load i32, ptr %10, align 4
  switch i32 %124, label %222 [
    i32 0, label %125
    i32 5, label %220
  ]

125:                                              ; preds = %123
  br label %126

126:                                              ; preds = %125
  br label %127

127:                                              ; preds = %126
  br label %128

128:                                              ; preds = %127
  call void @llvm.lifetime.start.p0(i64 8, ptr %18) #7
  %129 = getelementptr inbounds nuw %struct.termios, ptr %7, i32 0, i32 1
  %130 = load i32, ptr %129, align 4, !tbaa !25
  %131 = zext i32 %130 to i64
  %132 = call ptr @PyLong_FromLong(i64 noundef %131)
  store ptr %132, ptr %18, align 8, !tbaa !3
  %133 = load ptr, ptr %18, align 8, !tbaa !3
  %134 = icmp eq ptr %133, null
  br i1 %134, label %135, label %137

135:                                              ; preds = %128
  %136 = load ptr, ptr %14, align 8, !tbaa !3
  call void @Py_DECREF(ptr noundef %136)
  store i32 5, ptr %10, align 4
  br label %141

137:                                              ; preds = %128
  %138 = load ptr, ptr %14, align 8, !tbaa !3
  %139 = load ptr, ptr %18, align 8, !tbaa !3
  %140 = call i32 @PyList_SetItem(ptr noundef %138, i64 noundef 1, ptr noundef %139)
  store i32 0, ptr %10, align 4
  br label %141

141:                                              ; preds = %135, %137
  call void @llvm.lifetime.end.p0(i64 8, ptr %18) #7
  %142 = load i32, ptr %10, align 4
  switch i32 %142, label %222 [
    i32 0, label %143
    i32 5, label %220
  ]

143:                                              ; preds = %141
  br label %144

144:                                              ; preds = %143
  br label %145

145:                                              ; preds = %144
  br label %146

146:                                              ; preds = %145
  call void @llvm.lifetime.start.p0(i64 8, ptr %19) #7
  %147 = getelementptr inbounds nuw %struct.termios, ptr %7, i32 0, i32 2
  %148 = load i32, ptr %147, align 4, !tbaa !26
  %149 = zext i32 %148 to i64
  %150 = call ptr @PyLong_FromLong(i64 noundef %149)
  store ptr %150, ptr %19, align 8, !tbaa !3
  %151 = load ptr, ptr %19, align 8, !tbaa !3
  %152 = icmp eq ptr %151, null
  br i1 %152, label %153, label %155

153:                                              ; preds = %146
  %154 = load ptr, ptr %14, align 8, !tbaa !3
  call void @Py_DECREF(ptr noundef %154)
  store i32 5, ptr %10, align 4
  br label %159

155:                                              ; preds = %146
  %156 = load ptr, ptr %14, align 8, !tbaa !3
  %157 = load ptr, ptr %19, align 8, !tbaa !3
  %158 = call i32 @PyList_SetItem(ptr noundef %156, i64 noundef 2, ptr noundef %157)
  store i32 0, ptr %10, align 4
  br label %159

159:                                              ; preds = %153, %155
  call void @llvm.lifetime.end.p0(i64 8, ptr %19) #7
  %160 = load i32, ptr %10, align 4
  switch i32 %160, label %222 [
    i32 0, label %161
    i32 5, label %220
  ]

161:                                              ; preds = %159
  br label %162

162:                                              ; preds = %161
  br label %163

163:                                              ; preds = %162
  br label %164

164:                                              ; preds = %163
  call void @llvm.lifetime.start.p0(i64 8, ptr %20) #7
  %165 = getelementptr inbounds nuw %struct.termios, ptr %7, i32 0, i32 3
  %166 = load i32, ptr %165, align 4, !tbaa !22
  %167 = zext i32 %166 to i64
  %168 = call ptr @PyLong_FromLong(i64 noundef %167)
  store ptr %168, ptr %20, align 8, !tbaa !3
  %169 = load ptr, ptr %20, align 8, !tbaa !3
  %170 = icmp eq ptr %169, null
  br i1 %170, label %171, label %173

171:                                              ; preds = %164
  %172 = load ptr, ptr %14, align 8, !tbaa !3
  call void @Py_DECREF(ptr noundef %172)
  store i32 5, ptr %10, align 4
  br label %177

173:                                              ; preds = %164
  %174 = load ptr, ptr %14, align 8, !tbaa !3
  %175 = load ptr, ptr %20, align 8, !tbaa !3
  %176 = call i32 @PyList_SetItem(ptr noundef %174, i64 noundef 3, ptr noundef %175)
  store i32 0, ptr %10, align 4
  br label %177

177:                                              ; preds = %171, %173
  call void @llvm.lifetime.end.p0(i64 8, ptr %20) #7
  %178 = load i32, ptr %10, align 4
  switch i32 %178, label %222 [
    i32 0, label %179
    i32 5, label %220
  ]

179:                                              ; preds = %177
  br label %180

180:                                              ; preds = %179
  br label %181

181:                                              ; preds = %180
  br label %182

182:                                              ; preds = %181
  call void @llvm.lifetime.start.p0(i64 8, ptr %21) #7
  %183 = load i32, ptr %11, align 4, !tbaa !11
  %184 = zext i32 %183 to i64
  %185 = call ptr @PyLong_FromLong(i64 noundef %184)
  store ptr %185, ptr %21, align 8, !tbaa !3
  %186 = load ptr, ptr %21, align 8, !tbaa !3
  %187 = icmp eq ptr %186, null
  br i1 %187, label %188, label %190

188:                                              ; preds = %182
  %189 = load ptr, ptr %14, align 8, !tbaa !3
  call void @Py_DECREF(ptr noundef %189)
  store i32 5, ptr %10, align 4
  br label %194

190:                                              ; preds = %182
  %191 = load ptr, ptr %14, align 8, !tbaa !3
  %192 = load ptr, ptr %21, align 8, !tbaa !3
  %193 = call i32 @PyList_SetItem(ptr noundef %191, i64 noundef 4, ptr noundef %192)
  store i32 0, ptr %10, align 4
  br label %194

194:                                              ; preds = %188, %190
  call void @llvm.lifetime.end.p0(i64 8, ptr %21) #7
  %195 = load i32, ptr %10, align 4
  switch i32 %195, label %222 [
    i32 0, label %196
    i32 5, label %220
  ]

196:                                              ; preds = %194
  br label %197

197:                                              ; preds = %196
  br label %198

198:                                              ; preds = %197
  br label %199

199:                                              ; preds = %198
  call void @llvm.lifetime.start.p0(i64 8, ptr %22) #7
  %200 = load i32, ptr %12, align 4, !tbaa !11
  %201 = zext i32 %200 to i64
  %202 = call ptr @PyLong_FromLong(i64 noundef %201)
  store ptr %202, ptr %22, align 8, !tbaa !3
  %203 = load ptr, ptr %22, align 8, !tbaa !3
  %204 = icmp eq ptr %203, null
  br i1 %204, label %205, label %207

205:                                              ; preds = %199
  %206 = load ptr, ptr %14, align 8, !tbaa !3
  call void @Py_DECREF(ptr noundef %206)
  store i32 5, ptr %10, align 4
  br label %211

207:                                              ; preds = %199
  %208 = load ptr, ptr %14, align 8, !tbaa !3
  %209 = load ptr, ptr %22, align 8, !tbaa !3
  %210 = call i32 @PyList_SetItem(ptr noundef %208, i64 noundef 5, ptr noundef %209)
  store i32 0, ptr %10, align 4
  br label %211

211:                                              ; preds = %205, %207
  call void @llvm.lifetime.end.p0(i64 8, ptr %22) #7
  %212 = load i32, ptr %10, align 4
  switch i32 %212, label %222 [
    i32 0, label %213
    i32 5, label %220
  ]

213:                                              ; preds = %211
  br label %214

214:                                              ; preds = %213
  br label %215

215:                                              ; preds = %214
  %216 = load ptr, ptr %14, align 8, !tbaa !3
  %217 = load ptr, ptr %13, align 8, !tbaa !3
  %218 = call i32 @PyList_SetItem(ptr noundef %216, i64 noundef 6, ptr noundef %217)
  %219 = load ptr, ptr %14, align 8, !tbaa !3
  store ptr %219, ptr %3, align 8
  store i32 1, ptr %10, align 4
  br label %222

220:                                              ; preds = %211, %194, %177, %159, %141, %123, %63, %108, %103, %97, %88, %82
  %221 = load ptr, ptr %13, align 8, !tbaa !3
  call void @Py_DECREF(ptr noundef %221)
  store ptr null, ptr %3, align 8
  store i32 1, ptr %10, align 4
  br label %222

222:                                              ; preds = %220, %215, %211, %194, %177, %159, %141, %123, %63
  call void @llvm.lifetime.end.p0(i64 4, ptr %15) #7
  call void @llvm.lifetime.end.p0(i64 8, ptr %14) #7
  br label %223

223:                                              ; preds = %222, %42
  call void @llvm.lifetime.end.p0(i64 8, ptr %13) #7
  call void @llvm.lifetime.end.p0(i64 4, ptr %12) #7
  call void @llvm.lifetime.end.p0(i64 4, ptr %11) #7
  br label %224

224:                                              ; preds = %223, %31
  call void @llvm.lifetime.end.p0(i64 4, ptr %8) #7
  call void @llvm.lifetime.end.p0(i64 60, ptr %7) #7
  call void @llvm.lifetime.end.p0(i64 8, ptr %6) #7
  %225 = load ptr, ptr %3, align 8
  ret ptr %225
}

; Function Attrs: nounwind uwtable
define internal ptr @termios_tcgetattr(ptr noundef %0, ptr noundef %1) #0 {
  %3 = alloca ptr, align 8
  %4 = alloca ptr, align 8
  %5 = alloca ptr, align 8
  %6 = alloca i32, align 4
  store ptr %0, ptr %3, align 8, !tbaa !3
  store ptr %1, ptr %4, align 8, !tbaa !3
  call void @llvm.lifetime.start.p0(i64 8, ptr %5) #7
  store ptr null, ptr %5, align 8, !tbaa !3
  call void @llvm.lifetime.start.p0(i64 4, ptr %6) #7
  %7 = load ptr, ptr %4, align 8, !tbaa !3
  %8 = call i32 @PyObject_AsFileDescriptor(ptr noundef %7)
  store i32 %8, ptr %6, align 4, !tbaa !11
  %9 = load i32, ptr %6, align 4, !tbaa !11
  %10 = icmp slt i32 %9, 0
  br i1 %10, label %11, label %12

11:                                               ; preds = %2
  br label %16

12:                                               ; preds = %2
  %13 = load ptr, ptr %3, align 8, !tbaa !3
  %14 = load i32, ptr %6, align 4, !tbaa !11
  %15 = call ptr @termios_tcgetattr_impl(ptr noundef %13, i32 noundef %14)
  store ptr %15, ptr %5, align 8, !tbaa !3
  br label %16

16:                                               ; preds = %12, %11
  %17 = load ptr, ptr %5, align 8, !tbaa !3
  call void @llvm.lifetime.end.p0(i64 4, ptr %6) #7
  call void @llvm.lifetime.end.p0(i64 8, ptr %5) #7
  ret ptr %17
}