; Function Attrs: nounwind uwtable
define internal ptr @termios_tcgetattr(ptr noundef %0, ptr noundef %1) #0 {
  %3 = alloca %struct.termios, align 4
  %4 = alloca i8, align 1
  %5 = tail call i32 @PyObject_AsFileDescriptor(ptr noundef %1) #5
  %6 = icmp slt i32 %5, 0
  br i1 %6, label %99, label %7

7:                                                ; preds = %2
  %8 = tail call ptr @PyModule_GetState(ptr noundef %0) #5
  call void @llvm.lifetime.start.p0(i64 60, ptr nonnull %3) #5
  call void @llvm.memset.p0.i64(ptr noundef nonnull align 4 dereferenceable(60) %3, i8 0, i64 60, i1 false)
  %9 = tail call ptr @PyEval_SaveThread() #5
  %10 = call i32 @tcgetattr(i32 noundef range(i32 0, -2147483648) %5, ptr noundef nonnull %3) #5
  call void @PyEval_RestoreThread(ptr noundef %9) #5
  %11 = icmp eq i32 %10, -1
  br i1 %11, label %12, label %15

12:                                               ; preds = %7
  %13 = load ptr, ptr %8, align 8, !tbaa !3
  %14 = call ptr @PyErr_SetFromErrno(ptr noundef %13) #5
  br label %termios_tcgetattr_impl.exit

15:                                               ; preds = %7
  %16 = call i32 @cfgetispeed(ptr noundef nonnull %3) #5
  %17 = call i32 @cfgetospeed(ptr noundef nonnull %3) #5
  %18 = call ptr @PyList_New(i64 noundef 32) #5
  %19 = icmp eq ptr %18, null
  br i1 %19, label %termios_tcgetattr_impl.exit, label %.preheader.i

.preheader.i:                                     ; preds = %15
  %20 = getelementptr inbounds nuw i8, ptr %3, i64 17
  br label %21

21:                                               ; preds = %27, %.preheader.i
  %indvars.iv.i = phi i64 [ 0, %.preheader.i ], [ %indvars.iv.next.i, %27 ]
  call void @llvm.lifetime.start.p0(i64 1, ptr nonnull %4) #5
  %22 = getelementptr [32 x i8], ptr %20, i64 0, i64 %indvars.iv.i
  %23 = load i8, ptr %22, align 1, !tbaa !10
  store i8 %23, ptr %4, align 1, !tbaa !10
  %24 = call ptr @PyBytes_FromStringAndSize(ptr noundef nonnull %4, i64 noundef 1) #5
  %25 = icmp eq ptr %24, null
  br i1 %25, label %26, label %27

26:                                               ; preds = %21
  call void @llvm.lifetime.end.p0(i64 1, ptr nonnull %4) #5
  br label %98

27:                                               ; preds = %21
  %28 = call i32 @PyList_SetItem(ptr noundef nonnull %18, i64 noundef %indvars.iv.i, ptr noundef nonnull %24) #5
  call void @llvm.lifetime.end.p0(i64 1, ptr nonnull %4) #5
  %indvars.iv.next.i = add nuw nsw i64 %indvars.iv.i, 1
  %exitcond.not.i = icmp eq i64 %indvars.iv.next.i, 32
  br i1 %exitcond.not.i, label %29, label %21, !llvm.loop !11

29:                                               ; preds = %27
  %30 = getelementptr inbounds nuw i8, ptr %3, i64 12
  %31 = load i32, ptr %30, align 4, !tbaa !13
  %32 = and i32 %31, 2
  %33 = icmp eq i32 %32, 0
  br i1 %33, label %34, label %52

34:                                               ; preds = %29
  %35 = getelementptr inbounds nuw i8, ptr %3, i64 23
  %36 = load i8, ptr %35, align 1, !tbaa !10
  %37 = zext i8 %36 to i64
  %38 = call ptr @PyLong_FromLong(i64 noundef %37) #5
  %39 = icmp eq ptr %38, null
  br i1 %39, label %98, label %40

40:                                               ; preds = %34
  %41 = call i32 @PyList_SetItem(ptr noundef nonnull %18, i64 noundef 6, ptr noundef nonnull %38) #5
  %42 = icmp slt i32 %41, 0
  br i1 %42, label %98, label %43

43:                                               ; preds = %40
  %44 = getelementptr inbounds nuw i8, ptr %3, i64 22
  %45 = load i8, ptr %44, align 2, !tbaa !10
  %46 = zext i8 %45 to i64
  %47 = call ptr @PyLong_FromLong(i64 noundef %46) #5
  %48 = icmp eq ptr %47, null
  br i1 %48, label %98, label %49

49:                                               ; preds = %43
  %50 = call i32 @PyList_SetItem(ptr noundef nonnull %18, i64 noundef 5, ptr noundef nonnull %47) #5
  %51 = icmp slt i32 %50, 0
  br i1 %51, label %98, label %52

52:                                               ; preds = %49, %29
  %53 = call ptr @PyList_New(i64 noundef 7) #5
  %.not.i = icmp eq ptr %53, null
  br i1 %.not.i, label %98, label %54

54:                                               ; preds = %52
  %55 = load i32, ptr %3, align 4, !tbaa !16
  %56 = zext i32 %55 to i64
  %57 = call ptr @PyLong_FromLong(i64 noundef %56) #5
  %58 = icmp eq ptr %57, null
  br i1 %58, label %59, label %60

59:                                               ; preds = %54
  call void @_Py_DecRef(ptr noundef nonnull %53) #5
  br label %98

60:                                               ; preds = %54
  %61 = call i32 @PyList_SetItem(ptr noundef nonnull %53, i64 noundef 0, ptr noundef nonnull %57) #5
  %62 = getelementptr inbounds nuw i8, ptr %3, i64 4
  %63 = load i32, ptr %62, align 4, !tbaa !17
  %64 = zext i32 %63 to i64
  %65 = call ptr @PyLong_FromLong(i64 noundef %64) #5
  %66 = icmp eq ptr %65, null
  br i1 %66, label %67, label %68

67:                                               ; preds = %60
  call void @_Py_DecRef(ptr noundef nonnull %53) #5
  br label %98

68:                                               ; preds = %60
  %69 = call i32 @PyList_SetItem(ptr noundef nonnull %53, i64 noundef 1, ptr noundef nonnull %65) #5
  %70 = getelementptr inbounds nuw i8, ptr %3, i64 8
  %71 = load i32, ptr %70, align 4, !tbaa !18
  %72 = zext i32 %71 to i64
  %73 = call ptr @PyLong_FromLong(i64 noundef %72) #5
  %74 = icmp eq ptr %73, null
  br i1 %74, label %75, label %76

75:                                               ; preds = %68
  call void @_Py_DecRef(ptr noundef nonnull %53) #5
  br label %98

76:                                               ; preds = %68
  %77 = call i32 @PyList_SetItem(ptr noundef nonnull %53, i64 noundef 2, ptr noundef nonnull %73) #5
  %78 = load i32, ptr %30, align 4, !tbaa !13
  %79 = zext i32 %78 to i64
  %80 = call ptr @PyLong_FromLong(i64 noundef %79) #5
  %81 = icmp eq ptr %80, null
  br i1 %81, label %82, label %83

82:                                               ; preds = %76
  call void @_Py_DecRef(ptr noundef nonnull %53) #5
  br label %98

83:                                               ; preds = %76
  %84 = call i32 @PyList_SetItem(ptr noundef nonnull %53, i64 noundef 3, ptr noundef nonnull %80) #5
  %85 = zext i32 %16 to i64
  %86 = call ptr @PyLong_FromLong(i64 noundef %85) #5
  %87 = icmp eq ptr %86, null
  br i1 %87, label %88, label %89

88:                                               ; preds = %83
  call void @_Py_DecRef(ptr noundef nonnull %53) #5
  br label %98

89:                                               ; preds = %83
  %90 = call i32 @PyList_SetItem(ptr noundef nonnull %53, i64 noundef 4, ptr noundef nonnull %86) #5
  %91 = zext i32 %17 to i64
  %92 = call ptr @PyLong_FromLong(i64 noundef %91) #5
  %93 = icmp eq ptr %92, null
  br i1 %93, label %94, label %95

94:                                               ; preds = %89
  call void @_Py_DecRef(ptr noundef nonnull %53) #5
  br label %98

95:                                               ; preds = %89
  %96 = call i32 @PyList_SetItem(ptr noundef nonnull %53, i64 noundef 5, ptr noundef nonnull %92) #5
  %97 = call i32 @PyList_SetItem(ptr noundef nonnull %53, i64 noundef 6, ptr noundef nonnull %18) #5
  br label %termios_tcgetattr_impl.exit

98:                                               ; preds = %94, %88, %82, %75, %67, %59, %52, %49, %43, %40, %34, %26
  call void @_Py_DecRef(ptr noundef nonnull %18) #5
  br label %termios_tcgetattr_impl.exit

termios_tcgetattr_impl.exit:                      ; preds = %12, %15, %95, %98
  %.0.i = phi ptr [ %14, %12 ], [ null, %15 ], [ null, %98 ], [ %53, %95 ]
  call void @llvm.lifetime.end.p0(i64 60, ptr nonnull %3) #5
  br label %99

99:                                               ; preds = %2, %termios_tcgetattr_impl.exit
  %.0 = phi ptr [ null, %2 ], [ %.0.i, %termios_tcgetattr_impl.exit ]
  ret ptr %.0
}